; Function Attrs: mustprogress uwtable
define hidden noundef ptr @_ZN7datalog30finite_product_relation_plugin8mk_emptyERKNS_18relation_signatureEPKbi(ptr noundef nonnull align 8 dereferenceable(112) %this, ptr nocapture noundef nonnull readonly align 8 dereferenceable(8) %s, ptr nocapture noundef readonly %table_columns, i32 noundef %inner_kind) local_unnamed_addr #3 align 2 personality ptr @__gxx_personality_v0 {
invoke.cont:
  %table_sig = alloca %"class.datalog::table_signature", align 8
  %remaining_sig = alloca %"class.datalog::relation_signature", align 8
  store ptr null, ptr %table_sig, align 8
  %m_functional_columns.i = getelementptr inbounds i8, ptr %table_sig, i64 8
  store i32 0, ptr %m_functional_columns.i, align 8
  store ptr null, ptr %remaining_sig, align 8
  invoke void @_ZN7datalog30finite_product_relation_plugin16split_signaturesERKNS_18relation_signatureEPKbRNS_15table_signatureERS1_(ptr noundef nonnull align 8 dereferenceable(112) %this, ptr noundef nonnull align 8 dereferenceable(8) %s, ptr noundef %table_columns, ptr noundef nonnull align 8 dereferenceable(12) %table_sig, ptr noundef nonnull align 8 dereferenceable(8) %remaining_sig)
          to label %invoke.cont3 unwind label %lpad2

invoke.cont3:                                     ; preds = %invoke.cont
  %0 = load ptr, ptr %table_sig, align 8
  %cmp.i = icmp eq ptr %0, null
  br i1 %cmp.i, label %if.then.i, label %lor.lhs.false.i

lor.lhs.false.i:                                  ; preds = %invoke.cont3
  %arrayidx.i = getelementptr inbounds i8, ptr %0, i64 -4
  %1 = load i32, ptr %arrayidx.i, align 4
  %arrayidx4.i = getelementptr inbounds i8, ptr %0, i64 -8
  %2 = load i32, ptr %arrayidx4.i, align 4
  %cmp5.i = icmp eq i32 %1, %2
  br i1 %cmp5.i, label %if.then.i, label %invoke.cont4

if.then.i:                                        ; preds = %lor.lhs.false.i, %invoke.cont3
  invoke void @_ZN6vectorImLb0EjE13expand_vectorEv(ptr noundef nonnull align 8 dereferenceable(8) %table_sig)
          to label %.noexc unwind label %lpad2

.noexc:                                           ; preds = %if.then.i
  %.pre.i = load ptr, ptr %table_sig, align 8
  %arrayidx8.phi.trans.insert.i = getelementptr inbounds i8, ptr %.pre.i, i64 -4
  %.pre1.i = load i32, ptr %arrayidx8.phi.trans.insert.i, align 4
  br label %invoke.cont4

invoke.cont4:                                     ; preds = %.noexc, %lor.lhs.false.i
  %3 = phi i32 [ %.pre1.i, %.noexc ], [ %1, %lor.lhs.false.i ]
  %4 = phi ptr [ %.pre.i, %.noexc ], [ %0, %lor.lhs.false.i ]
  %idx.ext.i = zext i32 %3 to i64
  %add.ptr.i = getelementptr inbounds i64, ptr %4, i64 %idx.ext.i
  store i64 2147483647, ptr %add.ptr.i, align 8
  %5 = load ptr, ptr %table_sig, align 8
  %arrayidx10.i = getelementptr inbounds i8, ptr %5, i64 -4
  %6 = load i32, ptr %arrayidx10.i, align 4
  %inc.i = add i32 %6, 1
  store i32 %inc.i, ptr %arrayidx10.i, align 4
  store i32 1, ptr %m_functional_columns.i, align 8
  %m_manager.i = getelementptr inbounds i8, ptr %this, i64 24
  %7 = load ptr, ptr %m_manager.i, align 8
  %call9 = invoke noundef nonnull align 8 dereferenceable(32) ptr @_ZN7datalog16relation_manager22get_appropriate_pluginERKNS_15table_signatureE(ptr noundef nonnull align 8 dereferenceable(200) %7, ptr noundef nonnull align 8 dereferenceable(12) %table_sig)
          to label %invoke.cont8 unwind label %lpad2

invoke.cont8:                                     ; preds = %invoke.cont4
  %call11 = invoke noalias noundef ptr @_ZN6memory8allocateEm(i64 noundef 160)
          to label %invoke.cont10 unwind label %lpad2

invoke.cont10:                                    ; preds = %invoke.cont8
  %m_inner_plugin = getelementptr inbounds i8, ptr %this, i64 40
  %8 = load ptr, ptr %m_inner_plugin, align 8
  invoke void @_ZN7datalog23finite_product_relationC2ERNS_30finite_product_relation_pluginERKNS_18relation_signatureEPKbRNS_12table_pluginERNS_15relation_pluginEi(ptr noundef nonnull align 8 dereferenceable(160) %call11, ptr noundef nonnull align 8 dereferenceable(112) %this, ptr noundef nonnull align 8 dereferenceable(8) %s, ptr noundef %table_columns, ptr noundef nonnull align 8 dereferenceable(32) %call9, ptr noundef nonnull align 8 dereferenceable(36) %8, i32 noundef %inner_kind)
          to label %invoke.cont12 unwind label %lpad2

invoke.cont12:                                    ; preds = %invoke.cont10
  %9 = load ptr, ptr %remaining_sig, align 8
  %tobool.not.i.i.i.i.i = icmp eq ptr %9, null
  br i1 %tobool.not.i.i.i.i.i, label %_ZN7datalog18relation_signatureD2Ev.exit, label %if.then.i.i.i.i.i

if.then.i.i.i.i.i:                                ; preds = %invoke.cont12
  %add.ptr.i.i.i.i.i.i = getelementptr inbounds i8, ptr %9, i64 -8
  invoke void @_ZN6memory10deallocateEPv(ptr noundef nonnull %add.ptr.i.i.i.i.i.i)
          to label %_ZN7datalog18relation_signatureD2Ev.exit unwind label %terminate.lpad.i.i.i.i

terminate.lpad.i.i.i.i:                           ; preds = %if.then.i.i.i.i.i
  %10 = landingpad { ptr, i32 }
          catch ptr null
  %11 = extractvalue { ptr, i32 } %10, 0
  call void @__clang_call_terminate(ptr %11) #22
  unreachable

_ZN7datalog18relation_signatureD2Ev.exit:         ; preds = %invoke.cont12, %if.then.i.i.i.i.i
  %12 = load ptr, ptr %table_sig, align 8
  %tobool.not.i.i.i.i.i5 = icmp eq ptr %12, null
  br i1 %tobool.not.i.i.i.i.i5, label %_ZN7datalog15table_signatureD2Ev.exit, label %if.then.i.i.i.i.i6

if.then.i.i.i.i.i6:                               ; preds = %_ZN7datalog18relation_signatureD2Ev.exit
  %add.ptr.i.i.i.i.i.i7 = getelementptr inbounds i8, ptr %12, i64 -8
  invoke void @_ZN6memory10deallocateEPv(ptr noundef nonnull %add.ptr.i.i.i.i.i.i7)
          to label %_ZN7datalog15table_signatureD2Ev.exit unwind label %terminate.lpad.i.i.i.i8

terminate.lpad.i.i.i.i8:                          ; preds = %if.then.i.i.i.i.i6
  %13 = landingpad { ptr, i32 }
          catch ptr null
  %14 = extractvalue { ptr, i32 } %13, 0
  call void @__clang_call_terminate(ptr %14) #22
  unreachable

_ZN7datalog15table_signatureD2Ev.exit:            ; preds = %_ZN7datalog18relation_signatureD2Ev.exit, %if.then.i.i.i.i.i6
  ret ptr %call11

lpad2:                                            ; preds = %if.then.i, %invoke.cont10, %invoke.cont8, %invoke.cont4, %invoke.cont
  %15 = landingpad { ptr, i32 }
          cleanup
  call void @_ZN7datalog18relation_signatureD2Ev(ptr noundef nonnull align 8 dereferenceable(8) %remaining_sig) #20
  call void @_ZN7datalog15table_signatureD2Ev(ptr noundef nonnull align 8 dereferenceable(12) %table_sig) #20
  resume { ptr, i32 } %15
}